(dp0
S'petal_length'
p1
(dp2
S'<='
p3
(dp4
S'petal_width'
p5
(dp6
g3
S'Iris-setosa'
p7
sS'>'
p8
(dp9
S'sepal_width'
p10
(dp11
g3
S'Iris-versicolor'
p12
sg8
(dp13
S'sepal_length'
p14
(dp15
g3
S'Iris-setosa'
p16
sg8
S'Iris-versicolor'
p17
sssssssg8
S'Iris-virginica'
p18
ss.